; ModuleID = '47/4320.c'
source_filename = "47/4320.c"
target datalayout = "e-m:e-p270:32:32-p271:32:32-p272:64:64-i64:64-f80:128-n8:16:32:64-S128"
target triple = "x86_64-pc-linux-gnu"

@.str = private unnamed_addr constant [3 x i8] c"%d\00", align 1
@.str.1 = private unnamed_addr constant [4 x i8] c" %d\00", align 1

; Function Attrs: noinline nounwind uwtable
define dso_local void @main() #0 {
  %1 = alloca i32, align 4
  %2 = alloca i32, align 4
  %3 = alloca [100 x i32], align 16
  %4 = call i32 (i8*, ...) @__isoc99_scanf(i8* getelementptr inbounds ([3 x i8], [3 x i8]* @.str, i64 0, i64 0), i32* %1)
  store i32 0, i32* %2, align 4
  br label %5

5:                                                ; preds = %14, %0
  %6 = load i32, i32* %2, align 4
  %7 = load i32, i32* %1, align 4
  %8 = icmp slt i32 %6, %7
  br i1 %8, label %9, label %17

9:                                                ; preds = %5
  %10 = load i32, i32* %2, align 4
  %11 = sext i32 %10 to i64
  %12 = getelementptr inbounds [100 x i32], [100 x i32]* %3, i64 0, i64 %11
  %13 = call i32 (i8*, ...) @__isoc99_scanf(i8* getelementptr inbounds ([3 x i8], [3 x i8]* @.str, i64 0, i64 0), i32* %12)
  br label %14

14:                                               ; preds = %9
  %15 = load i32, i32* %2, align 4
  %16 = add nsw i32 %15, 1
  store i32 %16, i32* %2, align 4
  br label %5

17:                                               ; preds = %5
  %18 = getelementptr inbounds [100 x i32], [100 x i32]* %3, i64 0, i64 0
  %19 = load i32, i32* %1, align 4
  %20 = sext i32 %19 to i64
  %21 = getelementptr inbounds i32, i32* %18, i64 %20
  %22 = getelementptr inbounds i32, i32* %21, i64 -1
  %23 = load i32, i32* %22, align 4
  %24 = call i32 (i8*, ...) @printf(i8* getelementptr inbounds ([3 x i8], [3 x i8]* @.str, i64 0, i64 0), i32 %23)
  %25 = load i32, i32* %1, align 4
  %26 = sub nsw i32 %25, 2
  store i32 %26, i32* %2, align 4
  br label %27

27:                                               ; preds = %37, %17
  %28 = load i32, i32* %2, align 4
  %29 = icmp sge i32 %28, 0
  br i1 %29, label %30, label %40

30:                                               ; preds = %27
  %31 = getelementptr inbounds [100 x i32], [100 x i32]* %3, i64 0, i64 0
  %32 = load i32, i32* %2, align 4
  %33 = sext i32 %32 to i64
  %34 = getelementptr inbounds i32, i32* %31, i64 %33
  %35 = load i32, i32* %34, align 4
  %36 = call i32 (i8*, ...) @printf(i8* getelementptr inbounds ([4 x i8], [4 x i8]* @.str.1, i64 0, i64 0), i32 %35)
  br label %37

37:                                               ; preds = %30
  %38 = load i32, i32* %2, align 4
  %39 = add nsw i32 %38, -1
  store i32 %39, i32* %2, align 4
  br label %27

40:                                               ; preds = %27
  ret void
}

declare dso_local i32 @__isoc99_scanf(i8*, ...) #1

declare dso_local i32 @printf(i8*, ...) #1


!llvm.module.flags = !{!0}
!llvm.ident = !{!1}

!0 = !{i32 1, !"wchar_size", i32 4}
!1 = !{!"clang version 10.0.0-4ubuntu1 "}
